; Function Attrs: mustprogress nounwind uwtable
define hidden void @_ZN4cvc58internal6theory26EqEngineManagerDistributedD0Ev(ptr noundef nonnull align 8 dereferenceable(104) %this) unnamed_addr #4 align 2 personality ptr @__gxx_personality_v0 {
entry:
  store ptr getelementptr inbounds ({ [6 x ptr] }, ptr @_ZTVN4cvc58internal6theory26EqEngineManagerDistributedE, i64 0, i32 0, i64 2), ptr %this, align 8
  %d_stbEqualityEngine.i = getelementptr inbounds i8, ptr %this, i64 96
  %0 = load ptr, ptr %d_stbEqualityEngine.i, align 8
  %cmp.not.i.i = icmp eq ptr %0, null
  br i1 %cmp.not.i.i, label %_ZNSt10unique_ptrIN4cvc58internal6theory2eq14EqualityEngineESt14default_deleteIS4_EED2Ev.exit.i, label %_ZNKSt14default_deleteIN4cvc58internal6theory2eq14EqualityEngineEEclEPS4_.exit.i.i

_ZNKSt14default_deleteIN4cvc58internal6theory2eq14EqualityEngineEEclEPS4_.exit.i.i: ; preds = %entry
  %vtable.i.i.i = load ptr, ptr %0, align 8
  %vfn.i.i.i = getelementptr inbounds i8, ptr %vtable.i.i.i, i64 16
  %1 = load ptr, ptr %vfn.i.i.i, align 8
  tail call void %1(ptr noundef nonnull align 8 dereferenceable(1784) %0) #15
  br label %_ZNSt10unique_ptrIN4cvc58internal6theory2eq14EqualityEngineESt14default_deleteIS4_EED2Ev.exit.i

_ZNSt10unique_ptrIN4cvc58internal6theory2eq14EqualityEngineESt14default_deleteIS4_EED2Ev.exit.i: ; preds = %_ZNKSt14default_deleteIN4cvc58internal6theory2eq14EqualityEngineEEclEPS4_.exit.i.i, %entry
  store ptr null, ptr %d_stbEqualityEngine.i, align 8
  %d_masterEqualityEngine.i = getelementptr inbounds i8, ptr %this, i64 88
  %2 = load ptr, ptr %d_masterEqualityEngine.i, align 8
  %cmp.not.i1.i = icmp eq ptr %2, null
  br i1 %cmp.not.i1.i, label %_ZNSt10unique_ptrIN4cvc58internal6theory2eq14EqualityEngineESt14default_deleteIS4_EED2Ev.exit5.i, label %_ZNKSt14default_deleteIN4cvc58internal6theory2eq14EqualityEngineEEclEPS4_.exit.i2.i

_ZNKSt14default_deleteIN4cvc58internal6theory2eq14EqualityEngineEEclEPS4_.exit.i2.i: ; preds = %_ZNSt10unique_ptrIN4cvc58internal6theory2eq14EqualityEngineESt14default_deleteIS4_EED2Ev.exit.i
  %vtable.i.i3.i = load ptr, ptr %2, align 8
  %vfn.i.i4.i = getelementptr inbounds i8, ptr %vtable.i.i3.i, i64 16
  %3 = load ptr, ptr %vfn.i.i4.i, align 8
  tail call void %3(ptr noundef nonnull align 8 dereferenceable(1784) %2) #15
  br label %_ZNSt10unique_ptrIN4cvc58internal6theory2eq14EqualityEngineESt14default_deleteIS4_EED2Ev.exit5.i

_ZNSt10unique_ptrIN4cvc58internal6theory2eq14EqualityEngineESt14default_deleteIS4_EED2Ev.exit5.i: ; preds = %_ZNKSt14default_deleteIN4cvc58internal6theory2eq14EqualityEngineEEclEPS4_.exit.i2.i, %_ZNSt10unique_ptrIN4cvc58internal6theory2eq14EqualityEngineESt14default_deleteIS4_EED2Ev.exit.i
  store ptr null, ptr %d_masterEqualityEngine.i, align 8
  %d_masterEENotify.i = getelementptr inbounds i8, ptr %this, i64 80
  %4 = load ptr, ptr %d_masterEENotify.i, align 8
  %cmp.not.i6.i = icmp eq ptr %4, null
  br i1 %cmp.not.i6.i, label %_ZNSt10unique_ptrIN4cvc58internal6theory11quantifiers17MasterNotifyClassESt14default_deleteIS4_EED2Ev.exit.i, label %_ZNKSt14default_deleteIN4cvc58internal6theory11quantifiers17MasterNotifyClassEEclEPS4_.exit.i.i

_ZNKSt14default_deleteIN4cvc58internal6theory11quantifiers17MasterNotifyClassEEclEPS4_.exit.i.i: ; preds = %_ZNSt10unique_ptrIN4cvc58internal6theory2eq14EqualityEngineESt14default_deleteIS4_EED2Ev.exit5.i
  %vtable.i.i7.i = load ptr, ptr %4, align 8
  %vfn.i.i8.i = getelementptr inbounds i8, ptr %vtable.i.i7.i, i64 8
  %5 = load ptr, ptr %vfn.i.i8.i, align 8
  tail call void %5(ptr noundef nonnull align 8 dereferenceable(16) %4) #15
  br label %_ZNSt10unique_ptrIN4cvc58internal6theory11quantifiers17MasterNotifyClassESt14default_deleteIS4_EED2Ev.exit.i

_ZNSt10unique_ptrIN4cvc58internal6theory11quantifiers17MasterNotifyClassESt14default_deleteIS4_EED2Ev.exit.i: ; preds = %_ZNKSt14default_deleteIN4cvc58internal6theory11quantifiers17MasterNotifyClassEEclEPS4_.exit.i.i, %_ZNSt10unique_ptrIN4cvc58internal6theory2eq14EqualityEngineESt14default_deleteIS4_EED2Ev.exit5.i
  store ptr null, ptr %d_masterEENotify.i, align 8
  store ptr getelementptr inbounds ({ [6 x ptr] }, ptr @_ZTVN4cvc58internal6theory15EqEngineManagerE, i64 0, i32 0, i64 2), ptr %this, align 8
  %d_einfo.i.i = getelementptr inbounds i8, ptr %this, i64 32
  %_M_parent.i.i.i.i.i.i = getelementptr inbounds i8, ptr %this, i64 48
  %6 = load ptr, ptr %_M_parent.i.i.i.i.i.i, align 8
  invoke void @_ZNSt8_Rb_treeIN4cvc58internal6theory8TheoryIdESt4pairIKS3_NS2_12EeTheoryInfoEESt10_Select1stIS7_ESt4lessIS3_ESaIS7_EE8_M_eraseEPSt13_Rb_tree_nodeIS7_E(ptr noundef nonnull align 8 dereferenceable(48) %d_einfo.i.i, ptr noundef %6)
          to label %_ZN4cvc58internal6theory26EqEngineManagerDistributedD2Ev.exit unwind label %terminate.lpad.i.i.i.i

terminate.lpad.i.i.i.i:                           ; preds = %_ZNSt10unique_ptrIN4cvc58internal6theory11quantifiers17MasterNotifyClassESt14default_deleteIS4_EED2Ev.exit.i
  %7 = landingpad { ptr, i32 }
          catch ptr null
  %8 = extractvalue { ptr, i32 } %7, 0
  tail call void @__clang_call_terminate(ptr %8) #16
  unreachable

_ZN4cvc58internal6theory26EqEngineManagerDistributedD2Ev.exit: ; preds = %_ZNSt10unique_ptrIN4cvc58internal6theory11quantifiers17MasterNotifyClassESt14default_deleteIS4_EED2Ev.exit.i
  tail call void @_ZdlPv(ptr noundef nonnull %this) #17
  ret void
}